; Function Attrs: mustprogress nounwind uwtable
define internal fastcc void @_ZNSt6vectorIN8nlohmann16json_abi_v3_11_310basic_jsonISt3mapS_NSt7__cxx1112basic_stringIcSt11char_traitsIcESaIcEEEblmdN12_GLOBAL__N_112my_allocatorENS1_14adl_serializerES_IhSaIhEEvEESaISF_EED2Ev(ptr nocapture noundef nonnull readonly align 8 dereferenceable(24) %this) unnamed_addr #4 align 2 personality ptr @__gxx_personality_v0 {
entry:
  %0 = load ptr, ptr %this, align 8
  %_M_finish = getelementptr inbounds i8, ptr %this, i64 8
  %1 = load ptr, ptr %_M_finish, align 8
  %cmp.not.i.i2 = icmp eq ptr %0, %1
  br i1 %cmp.not.i.i2, label %invoke.cont, label %for.body.i.i

for.body.i.i:                                     ; preds = %entry, %_ZSt8_DestroyIN8nlohmann16json_abi_v3_11_310basic_jsonISt3mapSt6vectorNSt7__cxx1112basic_stringIcSt11char_traitsIcESaIcEEEblmdN12_GLOBAL__N_112my_allocatorENS1_14adl_serializerES4_IhSaIhEEvEEEvPT_.exit
  %__first.addr.0.i.i3 = phi ptr [ %incdec.ptr.i.i, %_ZSt8_DestroyIN8nlohmann16json_abi_v3_11_310basic_jsonISt3mapSt6vectorNSt7__cxx1112basic_stringIcSt11char_traitsIcESaIcEEEblmdN12_GLOBAL__N_112my_allocatorENS1_14adl_serializerES4_IhSaIhEEvEEEvPT_.exit ], [ %0, %entry ]
  %m_value.i.i.i = getelementptr inbounds i8, ptr %__first.addr.0.i.i3, i64 8
  %2 = load i8, ptr %__first.addr.0.i.i3, align 8
  invoke fastcc void @_ZN8nlohmann16json_abi_v3_11_310basic_jsonISt3mapSt6vectorNSt7__cxx1112basic_stringIcSt11char_traitsIcESaIcEEEblmdN12_GLOBAL__N_112my_allocatorENS0_14adl_serializerES3_IhSaIhEEvE10json_value7destroyENS0_6detail7value_tE(ptr noundef nonnull align 8 dereferenceable(8) %m_value.i.i.i, i8 noundef zeroext %2)
          to label %_ZSt8_DestroyIN8nlohmann16json_abi_v3_11_310basic_jsonISt3mapSt6vectorNSt7__cxx1112basic_stringIcSt11char_traitsIcESaIcEEEblmdN12_GLOBAL__N_112my_allocatorENS1_14adl_serializerES4_IhSaIhEEvEEEvPT_.exit unwind label %terminate.lpad.i.i.i

terminate.lpad.i.i.i:                             ; preds = %for.body.i.i
  %3 = landingpad { ptr, i32 }
          catch ptr null
  %4 = extractvalue { ptr, i32 } %3, 0
  tail call void @__clang_call_terminate(ptr %4) #19
  unreachable

_ZSt8_DestroyIN8nlohmann16json_abi_v3_11_310basic_jsonISt3mapSt6vectorNSt7__cxx1112basic_stringIcSt11char_traitsIcESaIcEEEblmdN12_GLOBAL__N_112my_allocatorENS1_14adl_serializerES4_IhSaIhEEvEEEvPT_.exit: ; preds = %for.body.i.i
  %incdec.ptr.i.i = getelementptr inbounds i8, ptr %__first.addr.0.i.i3, i64 16
  %cmp.not.i.i = icmp eq ptr %incdec.ptr.i.i, %1
  br i1 %cmp.not.i.i, label %invoke.cont.loopexit, label %for.body.i.i, !llvm.loop !55

invoke.cont.loopexit:                             ; preds = %_ZSt8_DestroyIN8nlohmann16json_abi_v3_11_310basic_jsonISt3mapSt6vectorNSt7__cxx1112basic_stringIcSt11char_traitsIcESaIcEEEblmdN12_GLOBAL__N_112my_allocatorENS1_14adl_serializerES4_IhSaIhEEvEEEvPT_.exit
  %this.val.pre = load ptr, ptr %this, align 8
  br label %invoke.cont

invoke.cont:                                      ; preds = %invoke.cont.loopexit, %entry
  %this.val = phi ptr [ %this.val.pre, %invoke.cont.loopexit ], [ %0, %entry ]
  %tobool.not.i.i = icmp eq ptr %this.val, null
  br i1 %tobool.not.i.i, label %_ZNSt12_Vector_baseIN8nlohmann16json_abi_v3_11_310basic_jsonISt3mapSt6vectorNSt7__cxx1112basic_stringIcSt11char_traitsIcESaIcEEEblmdN12_GLOBAL__N_112my_allocatorENS1_14adl_serializerES4_IhSaIhEEvEESaISG_EED2Ev.exit, label %if.then.i.i

if.then.i.i:                                      ; preds = %invoke.cont
  tail call void @_ZdlPv(ptr noundef nonnull %this.val) #21
  br label %_ZNSt12_Vector_baseIN8nlohmann16json_abi_v3_11_310basic_jsonISt3mapSt6vectorNSt7__cxx1112basic_stringIcSt11char_traitsIcESaIcEEEblmdN12_GLOBAL__N_112my_allocatorENS1_14adl_serializerES4_IhSaIhEEvEESaISG_EED2Ev.exit

_ZNSt12_Vector_baseIN8nlohmann16json_abi_v3_11_310basic_jsonISt3mapSt6vectorNSt7__cxx1112basic_stringIcSt11char_traitsIcESaIcEEEblmdN12_GLOBAL__N_112my_allocatorENS1_14adl_serializerES4_IhSaIhEEvEESaISG_EED2Ev.exit: ; preds = %invoke.cont, %if.then.i.i
  ret void
}